target datalayout = "e-m:e-p270:32:32-p271:32:32-p272:64:64-i64:64-i128:128-f80:128-n8:16:32:64-S128"
target triple = "x86_64-pc-linux-gnu"

%struct.darktable_t = type { %struct.dt_codepath_t, i32, i32, ptr, ptr, ptr, ptr, ptr, ptr, ptr, ptr, ptr, ptr, ptr, ptr, ptr, ptr, ptr, ptr, ptr, ptr, ptr, ptr, ptr, ptr, ptr, ptr, ptr, ptr, ptr, [64 x %struct.dt_pthread_mutex_t], %struct.dt_pthread_mutex_t, %struct.dt_pthread_mutex_t, %struct.dt_pthread_mutex_t, %struct.dt_pthread_mutex_t, %struct.dt_pthread_mutex_t, ptr, ptr, ptr, ptr, ptr, ptr, ptr, ptr, ptr, ptr, ptr, ptr, ptr, %struct.dt_lua_state_t, ptr, double, ptr, i32, [47 x i32], i32, i32, ptr, ptr, %struct.dt_sys_resources_t, %struct.dt_backthumb_t, %struct.dt_gimp_t }
%struct.dt_codepath_t = type { i8, [3 x i8] }
%struct.dt_pthread_mutex_t = type { %union.pthread_mutex_t }
%union.pthread_mutex_t = type { %struct.__pthread_mutex_s }
%struct.__pthread_mutex_s = type { i32, i32, i32, i32, i32, i16, i16, %struct.__pthread_internal_list }
%struct.__pthread_internal_list = type { ptr, ptr }
%struct.dt_lua_state_t = type { i32 }
%struct.dt_sys_resources_t = type { i64, i64, ptr, ptr, i32 }
%struct.dt_backthumb_t = type { double, double, i32, i32, i32, i32 }
%struct.dt_gimp_t = type { i32, ptr, ptr, i32, i32 }
%struct._DtBauhausWidget = type { %struct._GtkDrawingArea, i32, ptr, ptr, i32, [256 x i8], i32, ptr, i32, ptr, ptr, i32, ptr, i32, i32, i32, %struct._GtkBorder, %struct._GtkBorder, i32, %union.dt_bauhaus_data_t }
%struct._GtkDrawingArea = type { %struct._GtkWidget, ptr }
%struct._GtkWidget = type { %struct._GObject, ptr }
%struct._GObject = type { %struct._GTypeInstance, i32, ptr }
%struct._GTypeInstance = type { ptr }
%struct._GtkBorder = type { i16, i16, i16, i16 }
%union.dt_bauhaus_data_t = type { %struct.dt_bauhaus_slider_data_t }
%struct.dt_bauhaus_slider_data_t = type { float, float, float, float, float, float, float, float, float, float, i32, ptr, i32, ptr, i8, ptr, float, float, i8, i32, ptr }

@dt_bh_get_type.static_g_define_type_id = internal global i64 0, align 8
@darktable = external global %struct.darktable_t, align 8
@.str.49 = private unnamed_addr constant [48 x i8] c"[bauhaus_slider_set_stop] only %d stops allowed\00", align 1

; Function Attrs: nounwind uwtable
define i64 @dt_bh_get_type() #0 {
  %1 = alloca i32, align 4
  %2 = alloca i64, align 8
  %3 = alloca ptr, align 8
  %4 = alloca i64, align 8
  %5 = alloca i64, align 8
  call void @llvm.lifetime.start.p0(i64 8, ptr %2) #13
  call void @llvm.lifetime.start.p0(i64 8, ptr %3) #13
  store ptr @dt_bh_get_type.static_g_define_type_id, ptr %3, align 8, !tbaa !6
  %6 = load ptr, ptr %3, align 8, !tbaa !6
  %7 = load atomic i64, ptr %6 seq_cst, align 8
  store i64 %7, ptr %2, align 8
  %8 = load i64, ptr %2, align 8, !tbaa !11
  store i64 %8, ptr %4, align 8, !tbaa !11
  call void @llvm.lifetime.end.p0(i64 8, ptr %3) #13
  call void @llvm.lifetime.end.p0(i64 8, ptr %2) #13
  %9 = load i64, ptr %4, align 8, !tbaa !11
  %10 = icmp ne i64 %9, 0
  br i1 %10, label %14, label %11

11:                                               ; preds = %0
  %12 = call i32 @g_once_init_enter(ptr noundef @dt_bh_get_type.static_g_define_type_id)
  %13 = icmp ne i32 %12, 0
  br label %14

14:                                               ; preds = %11, %0
  %15 = phi i1 [ false, %0 ], [ %13, %11 ]
  %16 = zext i1 %15 to i32
  store i32 %16, ptr %1, align 4, !tbaa !13
  %17 = load i32, ptr %1, align 4, !tbaa !13
  %18 = icmp ne i32 %17, 0
  br i1 %18, label %19, label %22

19:                                               ; preds = %14
  call void @llvm.lifetime.start.p0(i64 8, ptr %5) #13
  %20 = call i64 @dt_bh_get_type_once()
  store i64 %20, ptr %5, align 8, !tbaa !11
  %21 = load i64, ptr %5, align 8, !tbaa !11
  call void @g_once_init_leave(ptr noundef @dt_bh_get_type.static_g_define_type_id, i64 noundef %21)
  call void @llvm.lifetime.end.p0(i64 8, ptr %5) #13
  br label %22

22:                                               ; preds = %19, %14
  %23 = load i64, ptr @dt_bh_get_type.static_g_define_type_id, align 8, !tbaa !11
  ret i64 %23
}

; Function Attrs: inlinehint nounwind uwtable
define internal ptr @DT_BAUHAUS_WIDGET(ptr noundef %0) #4 {
  %2 = alloca ptr, align 8
  store ptr %0, ptr %2, align 8, !tbaa !32
  %3 = load ptr, ptr %2, align 8, !tbaa !32
  %4 = call i64 @dt_bh_get_type()
  %5 = call ptr @g_type_check_instance_cast(ptr noundef %3, i64 noundef %4)
  ret ptr %5
}

; Function Attrs: nounwind uwtable
define void @dt_bauhaus_slider_set_stop(ptr noundef %0, float noundef %1, float noundef %2, float noundef %3, float noundef %4) #0 {
  %6 = alloca ptr, align 8
  %7 = alloca float, align 4
  %8 = alloca float, align 4
  %9 = alloca float, align 4
  %10 = alloca float, align 4
  %11 = alloca ptr, align 8
  %12 = alloca i32, align 4
  %13 = alloca ptr, align 8
  %14 = alloca i32, align 4
  %15 = alloca i32, align 4
  store ptr %0, ptr %6, align 8, !tbaa !15
  store float %1, ptr %7, align 4, !tbaa !130
  store float %2, ptr %8, align 4, !tbaa !130
  store float %3, ptr %9, align 4, !tbaa !130
  store float %4, ptr %10, align 4, !tbaa !130
  call void @llvm.lifetime.start.p0(i64 8, ptr %11) #13
  %16 = load ptr, ptr %6, align 8, !tbaa !15
  %17 = call ptr @DT_BAUHAUS_WIDGET(ptr noundef %16)
  store ptr %17, ptr %11, align 8, !tbaa !17
  %18 = load ptr, ptr %11, align 8, !tbaa !17
  %19 = getelementptr inbounds nuw %struct._DtBauhausWidget, ptr %18, i32 0, i32 1
  %20 = load i32, ptr %19, align 8, !tbaa !139
  %21 = icmp ne i32 %20, 1
  br i1 %21, label %22, label %23

22:                                               ; preds = %5
  store i32 1, ptr %12, align 4
  br label %139

23:                                               ; preds = %5
  call void @llvm.lifetime.start.p0(i64 8, ptr %13) #13
  %24 = load ptr, ptr %11, align 8, !tbaa !17
  %25 = getelementptr inbounds nuw %struct._DtBauhausWidget, ptr %24, i32 0, i32 19
  store ptr %25, ptr %13, align 8, !tbaa !140
  %26 = load ptr, ptr %13, align 8, !tbaa !140
  %27 = getelementptr inbounds nuw %struct.dt_bauhaus_slider_data_t, ptr %26, i32 0, i32 11
  %28 = load ptr, ptr %27, align 8, !tbaa !266
  %29 = icmp ne ptr %28, null
  br i1 %29, label %37, label %30

30:                                               ; preds = %23
  %31 = call noalias ptr @malloc(i64 noundef 240) #17
  %32 = load ptr, ptr %13, align 8, !tbaa !140
  %33 = getelementptr inbounds nuw %struct.dt_bauhaus_slider_data_t, ptr %32, i32 0, i32 11
  store ptr %31, ptr %33, align 8, !tbaa !266
  %34 = call noalias ptr @malloc(i64 noundef 80) #17
  %35 = load ptr, ptr %13, align 8, !tbaa !140
  %36 = getelementptr inbounds nuw %struct.dt_bauhaus_slider_data_t, ptr %35, i32 0, i32 13
  store ptr %34, ptr %36, align 8, !tbaa !267
  br label %37

37:                                               ; preds = %30, %23
  call void @llvm.lifetime.start.p0(i64 4, ptr %14) #13
  store i32 0, ptr %14, align 4, !tbaa !13
  br label %38

38:                                               ; preds = %81, %37
  %39 = load i32, ptr %14, align 4, !tbaa !13
  %40 = load ptr, ptr %13, align 8, !tbaa !140
  %41 = getelementptr inbounds nuw %struct.dt_bauhaus_slider_data_t, ptr %40, i32 0, i32 12
  %42 = load i32, ptr %41, align 8, !tbaa !265
  %43 = icmp slt i32 %39, %42
  br i1 %43, label %45, label %44

44:                                               ; preds = %38
  store i32 2, ptr %12, align 4
  br label %84

45:                                               ; preds = %38
  %46 = load ptr, ptr %13, align 8, !tbaa !140
  %47 = getelementptr inbounds nuw %struct.dt_bauhaus_slider_data_t, ptr %46, i32 0, i32 13
  %48 = load ptr, ptr %47, align 8, !tbaa !267
  %49 = load i32, ptr %14, align 4, !tbaa !13
  %50 = sext i32 %49 to i64
  %51 = getelementptr inbounds float, ptr %48, i64 %50
  %52 = load float, ptr %51, align 4, !tbaa !130
  %53 = load float, ptr %7, align 4, !tbaa !130
  %54 = fcmp reassoc nsz arcp contract afn oeq float %52, %53
  br i1 %54, label %55, label %80

55:                                               ; preds = %45
  %56 = load float, ptr %8, align 4, !tbaa !130
  %57 = load ptr, ptr %13, align 8, !tbaa !140
  %58 = getelementptr inbounds nuw %struct.dt_bauhaus_slider_data_t, ptr %57, i32 0, i32 11
  %59 = load ptr, ptr %58, align 8, !tbaa !266
  %60 = load i32, ptr %14, align 4, !tbaa !13
  %61 = sext i32 %60 to i64
  %62 = getelementptr inbounds [3 x float], ptr %59, i64 %61
  %63 = getelementptr inbounds [3 x float], ptr %62, i64 0, i64 0
  store float %56, ptr %63, align 4, !tbaa !130
  %64 = load float, ptr %9, align 4, !tbaa !130
  %65 = load ptr, ptr %13, align 8, !tbaa !140
  %66 = getelementptr inbounds nuw %struct.dt_bauhaus_slider_data_t, ptr %65, i32 0, i32 11
  %67 = load ptr, ptr %66, align 8, !tbaa !266
  %68 = load i32, ptr %14, align 4, !tbaa !13
  %69 = sext i32 %68 to i64
  %70 = getelementptr inbounds [3 x float], ptr %67, i64 %69
  %71 = getelementptr inbounds [3 x float], ptr %70, i64 0, i64 1
  store float %64, ptr %71, align 4, !tbaa !130
  %72 = load float, ptr %10, align 4, !tbaa !130
  %73 = load ptr, ptr %13, align 8, !tbaa !140
  %74 = getelementptr inbounds nuw %struct.dt_bauhaus_slider_data_t, ptr %73, i32 0, i32 11
  %75 = load ptr, ptr %74, align 8, !tbaa !266
  %76 = load i32, ptr %14, align 4, !tbaa !13
  %77 = sext i32 %76 to i64
  %78 = getelementptr inbounds [3 x float], ptr %75, i64 %77
  %79 = getelementptr inbounds [3 x float], ptr %78, i64 0, i64 2
  store float %72, ptr %79, align 4, !tbaa !130
  store i32 1, ptr %12, align 4
  br label %84

80:                                               ; preds = %45
  br label %81

81:                                               ; preds = %80
  %82 = load i32, ptr %14, align 4, !tbaa !13
  %83 = add nsw i32 %82, 1
  store i32 %83, ptr %14, align 4, !tbaa !13
  br label %38

84:                                               ; preds = %55, %44
  call void @llvm.lifetime.end.p0(i64 4, ptr %14) #13
  %85 = load i32, ptr %12, align 4
  switch i32 %85, label %138 [
    i32 2, label %86
  ]

86:                                               ; preds = %84
  %87 = load ptr, ptr %13, align 8, !tbaa !140
  %88 = getelementptr inbounds nuw %struct.dt_bauhaus_slider_data_t, ptr %87, i32 0, i32 12
  %89 = load i32, ptr %88, align 8, !tbaa !265
  %90 = icmp slt i32 %89, 20
  br i1 %90, label %91, label %127

91:                                               ; preds = %86
  call void @llvm.lifetime.start.p0(i64 4, ptr %15) #13
  %92 = load ptr, ptr %13, align 8, !tbaa !140
  %93 = getelementptr inbounds nuw %struct.dt_bauhaus_slider_data_t, ptr %92, i32 0, i32 12
  %94 = load i32, ptr %93, align 8, !tbaa !265
  %95 = add nsw i32 %94, 1
  store i32 %95, ptr %93, align 8, !tbaa !265
  store i32 %94, ptr %15, align 4, !tbaa !13
  %96 = load float, ptr %7, align 4, !tbaa !130
  %97 = load ptr, ptr %13, align 8, !tbaa !140
  %98 = getelementptr inbounds nuw %struct.dt_bauhaus_slider_data_t, ptr %97, i32 0, i32 13
  %99 = load ptr, ptr %98, align 8, !tbaa !267
  %100 = load i32, ptr %15, align 4, !tbaa !13
  %101 = sext i32 %100 to i64
  %102 = getelementptr inbounds float, ptr %99, i64 %101
  store float %96, ptr %102, align 4, !tbaa !130
  %103 = load float, ptr %8, align 4, !tbaa !130
  %104 = load ptr, ptr %13, align 8, !tbaa !140
  %105 = getelementptr inbounds nuw %struct.dt_bauhaus_slider_data_t, ptr %104, i32 0, i32 11
  %106 = load ptr, ptr %105, align 8, !tbaa !266
  %107 = load i32, ptr %15, align 4, !tbaa !13
  %108 = sext i32 %107 to i64
  %109 = getelementptr inbounds [3 x float], ptr %106, i64 %108
  %110 = getelementptr inbounds [3 x float], ptr %109, i64 0, i64 0
  store float %103, ptr %110, align 4, !tbaa !130
  %111 = load float, ptr %9, align 4, !tbaa !130
  %112 = load ptr, ptr %13, align 8, !tbaa !140
  %113 = getelementptr inbounds nuw %struct.dt_bauhaus_slider_data_t, ptr %112, i32 0, i32 11
  %114 = load ptr, ptr %113, align 8, !tbaa !266
  %115 = load i32, ptr %15, align 4, !tbaa !13
  %116 = sext i32 %115 to i64
  %117 = getelementptr inbounds [3 x float], ptr %114, i64 %116
  %118 = getelementptr inbounds [3 x float], ptr %117, i64 0, i64 1
  store float %111, ptr %118, align 4, !tbaa !130
  %119 = load float, ptr %10, align 4, !tbaa !130
  %120 = load ptr, ptr %13, align 8, !tbaa !140
  %121 = getelementptr inbounds nuw %struct.dt_bauhaus_slider_data_t, ptr %120, i32 0, i32 11
  %122 = load ptr, ptr %121, align 8, !tbaa !266
  %123 = load i32, ptr %15, align 4, !tbaa !13
  %124 = sext i32 %123 to i64
  %125 = getelementptr inbounds [3 x float], ptr %122, i64 %124
  %126 = getelementptr inbounds [3 x float], ptr %125, i64 0, i64 2
  store float %119, ptr %126, align 4, !tbaa !130
  call void @llvm.lifetime.end.p0(i64 4, ptr %15) #13
  br label %137

127:                                              ; preds = %86
  br label %128

128:                                              ; preds = %127
  %129 = load i32, ptr getelementptr inbounds nuw (%struct.darktable_t, ptr @darktable, i32 0, i32 2), align 8, !tbaa !247
  %130 = xor i32 %129, -1
  %131 = and i32 0, %130
  %132 = icmp ne i32 %131, 0
  br i1 %132, label %134, label %133

133:                                              ; preds = %128
  call void (ptr, ...) @dt_print_ext(ptr noundef @.str.49, i32 noundef 20)
  br label %134

134:                                              ; preds = %133, %128
  br label %135

135:                                              ; preds = %134
  br label %136

136:                                              ; preds = %135
  br label %137

137:                                              ; preds = %136, %91
  store i32 0, ptr %12, align 4
  br label %138

138:                                              ; preds = %137, %84
  call void @llvm.lifetime.end.p0(i64 8, ptr %13) #13
  br label %139

139:                                              ; preds = %138, %22
  call void @llvm.lifetime.end.p0(i64 8, ptr %11) #13
  %140 = load i32, ptr %12, align 4
  switch i32 %140, label %142 [
    i32 0, label %141
    i32 1, label %141
  ]

141:                                              ; preds = %139, %139
  ret void

142:                                              ; preds = %139
  unreachable
}