; Function Attrs: nounwind uwtable
define void @dt_bauhaus_slider_set_stop(ptr noundef %0, float noundef %1, float noundef %2, float noundef %3, float noundef %4) local_unnamed_addr #0 {
  %6 = load atomic i64, ptr @dt_bh_get_type.static_g_define_type_id seq_cst, align 8
  %.not.i.i = icmp eq i64 %6, 0
  br i1 %.not.i.i, label %7, label %DT_BAUHAUS_WIDGET.exit

7:                                                ; preds = %5
  %8 = tail call i32 @g_once_init_enter(ptr noundef nonnull @dt_bh_get_type.static_g_define_type_id) #19
  %.not4.i.i = icmp eq i32 %8, 0
  br i1 %.not4.i.i, label %DT_BAUHAUS_WIDGET.exit, label %9

9:                                                ; preds = %7
  %10 = tail call fastcc i64 @dt_bh_get_type_once()
  tail call void @g_once_init_leave(ptr noundef nonnull @dt_bh_get_type.static_g_define_type_id, i64 noundef %10) #19
  br label %DT_BAUHAUS_WIDGET.exit

DT_BAUHAUS_WIDGET.exit:                           ; preds = %5, %7, %9
  %11 = load i64, ptr @dt_bh_get_type.static_g_define_type_id, align 8, !tbaa !6
  %12 = tail call ptr @g_type_check_instance_cast(ptr noundef %0, i64 noundef %11) #19
  %13 = getelementptr inbounds nuw i8, ptr %12, i64 40
  %14 = load i32, ptr %13, align 8, !tbaa !105
  %.not = icmp eq i32 %14, 1
  br i1 %.not, label %15, label %47

15:                                               ; preds = %DT_BAUHAUS_WIDGET.exit
  %16 = getelementptr inbounds nuw i8, ptr %12, i64 456
  %17 = load ptr, ptr %16, align 8, !tbaa !220
  %.not37 = icmp eq ptr %17, null
  br i1 %.not37, label %18, label %22

18:                                               ; preds = %15
  %19 = tail call noalias dereferenceable_or_null(240) ptr @malloc(i64 noundef 240) #23
  store ptr %19, ptr %16, align 8, !tbaa !220
  %20 = tail call noalias dereferenceable_or_null(80) ptr @malloc(i64 noundef 80) #23
  %21 = getelementptr inbounds nuw i8, ptr %12, i64 472
  store ptr %20, ptr %21, align 8, !tbaa !221
  br label %22

22:                                               ; preds = %18, %15
  %23 = phi ptr [ %19, %18 ], [ %17, %15 ]
  %24 = getelementptr inbounds nuw i8, ptr %12, i64 464
  %25 = load i32, ptr %24, align 8, !tbaa !219
  %.not3843 = icmp sgt i32 %25, 0
  br i1 %.not3843, label %.lr.ph, label %.critedge.thread

.lr.ph:                                           ; preds = %22
  %26 = getelementptr inbounds nuw i8, ptr %12, i64 472
  %27 = load ptr, ptr %26, align 8, !tbaa !221
  %wide.trip.count = zext nneg i32 %25 to i64
  br label %29

28:                                               ; preds = %29
  %indvars.iv.next = add nuw nsw i64 %indvars.iv, 1
  %exitcond.not = icmp eq i64 %indvars.iv.next, %wide.trip.count
  br i1 %exitcond.not, label %.critedge, label %29

29:                                               ; preds = %.lr.ph, %28
  %indvars.iv = phi i64 [ 0, %.lr.ph ], [ %indvars.iv.next, %28 ]
  %30 = getelementptr inbounds nuw float, ptr %27, i64 %indvars.iv
  %31 = load float, ptr %30, align 4, !tbaa !144
  %32 = fcmp reassoc nsz arcp contract afn oeq float %31, %1
  br i1 %32, label %33, label %28

33:                                               ; preds = %29
  %34 = getelementptr inbounds nuw [3 x float], ptr %23, i64 %indvars.iv
  store float %2, ptr %34, align 4, !tbaa !144
  %35 = getelementptr inbounds nuw [3 x float], ptr %23, i64 %indvars.iv, i64 1
  store float %3, ptr %35, align 4, !tbaa !144
  %36 = getelementptr inbounds nuw [3 x float], ptr %23, i64 %indvars.iv, i64 2
  store float %4, ptr %36, align 4, !tbaa !144
  br label %47

.critedge:                                        ; preds = %28
  %37 = icmp slt i32 %25, 20
  br i1 %37, label %.critedge.thread, label %46

.critedge.thread:                                 ; preds = %22, %.critedge
  %38 = add nsw i32 %25, 1
  store i32 %38, ptr %24, align 8, !tbaa !219
  %39 = getelementptr inbounds nuw i8, ptr %12, i64 472
  %40 = load ptr, ptr %39, align 8, !tbaa !221
  %41 = sext i32 %25 to i64
  %42 = getelementptr inbounds float, ptr %40, i64 %41
  store float %1, ptr %42, align 4, !tbaa !144
  %43 = getelementptr inbounds [3 x float], ptr %23, i64 %41
  store float %2, ptr %43, align 4, !tbaa !144
  %44 = getelementptr inbounds [3 x float], ptr %23, i64 %41, i64 1
  store float %3, ptr %44, align 4, !tbaa !144
  %45 = getelementptr inbounds [3 x float], ptr %23, i64 %41, i64 2
  store float %4, ptr %45, align 4, !tbaa !144
  br label %47

46:                                               ; preds = %.critedge
  tail call void (ptr, ...) @dt_print_ext(ptr noundef nonnull @.str.49, i32 noundef 20) #19
  br label %47

47:                                               ; preds = %33, %46, %.critedge.thread, %DT_BAUHAUS_WIDGET.exit
  ret void
}